target datalayout = "e-m:e-p270:32:32-p271:32:32-p272:64:64-i64:64-i128:128-f80:128-n8:16:32:64-S128"
target triple = "x86_64-pc-linux-gnu"

; Function Attrs: nounwind uwtable
define internal i32 @SSKDF_hash_kdm(ptr noundef %0, ptr noundef %1, i64 noundef %2, ptr noundef %3, i64 noundef %4, i32 noundef %5, ptr noundef %6, i64 noundef %7) #0 {
  %9 = alloca i32, align 4
  %10 = alloca ptr, align 8
  %11 = alloca ptr, align 8
  %12 = alloca i64, align 8
  %13 = alloca ptr, align 8
  %14 = alloca i64, align 8
  %15 = alloca i32, align 4
  %16 = alloca ptr, align 8
  %17 = alloca i64, align 8
  %18 = alloca i32, align 4
  %19 = alloca i32, align 4
  %20 = alloca i64, align 8
  %21 = alloca i64, align 8
  %22 = alloca i64, align 8
  %23 = alloca [4 x i8], align 1
  %24 = alloca [64 x i8], align 16
  %25 = alloca ptr, align 8
  %26 = alloca ptr, align 8
  %27 = alloca ptr, align 8
  %28 = alloca i32, align 4
  store ptr %0, ptr %10, align 8, !tbaa !29
  store ptr %1, ptr %11, align 8, !tbaa !25
  store i64 %2, ptr %12, align 8, !tbaa !26
  store ptr %3, ptr %13, align 8, !tbaa !25
  store i64 %4, ptr %14, align 8, !tbaa !26
  store i32 %5, ptr %15, align 4, !tbaa !32
  store ptr %6, ptr %16, align 8, !tbaa !25
  store i64 %7, ptr %17, align 8, !tbaa !26
  call void @llvm.lifetime.start.p0(i64 4, ptr %18) #6
  store i32 0, ptr %18, align 4, !tbaa !32
  call void @llvm.lifetime.start.p0(i64 4, ptr %19) #6
  call void @llvm.lifetime.start.p0(i64 8, ptr %20) #6
  call void @llvm.lifetime.start.p0(i64 8, ptr %21) #6
  call void @llvm.lifetime.start.p0(i64 8, ptr %22) #6
  %29 = load i64, ptr %17, align 8, !tbaa !26
  store i64 %29, ptr %22, align 8, !tbaa !26
  call void @llvm.lifetime.start.p0(i64 4, ptr %23) #6
  call void @llvm.lifetime.start.p0(i64 64, ptr %24) #6
  call void @llvm.lifetime.start.p0(i64 8, ptr %25) #6
  %30 = load ptr, ptr %16, align 8, !tbaa !25
  store ptr %30, ptr %25, align 8, !tbaa !25
  call void @llvm.lifetime.start.p0(i64 8, ptr %26) #6
  store ptr null, ptr %26, align 8, !tbaa !35
  call void @llvm.lifetime.start.p0(i64 8, ptr %27) #6
  store ptr null, ptr %27, align 8, !tbaa !35
  %31 = load i64, ptr %12, align 8, !tbaa !26
  %32 = icmp ugt i64 %31, 1073741824
  br i1 %32, label %42, label %33

33:                                               ; preds = %8
  %34 = load i64, ptr %14, align 8, !tbaa !26
  %35 = icmp ugt i64 %34, 1073741824
  br i1 %35, label %42, label %36

36:                                               ; preds = %33
  %37 = load i64, ptr %17, align 8, !tbaa !26
  %38 = icmp ugt i64 %37, 1073741824
  br i1 %38, label %42, label %39

39:                                               ; preds = %36
  %40 = load i64, ptr %17, align 8, !tbaa !26
  %41 = icmp eq i64 %40, 0
  br i1 %41, label %42, label %43

42:                                               ; preds = %39, %36, %33, %8
  store i32 0, ptr %9, align 4
  store i32 1, ptr %28, align 4
  br label %161

43:                                               ; preds = %39
  %44 = load ptr, ptr %10, align 8, !tbaa !29
  %45 = call i32 @EVP_MD_get_size(ptr noundef %44)
  store i32 %45, ptr %19, align 4, !tbaa !32
  %46 = load i32, ptr %19, align 4, !tbaa !32
  %47 = icmp sle i32 %46, 0
  br i1 %47, label %48, label %49

48:                                               ; preds = %43
  store i32 0, ptr %9, align 4
  store i32 1, ptr %28, align 4
  br label %161

49:                                               ; preds = %43
  %50 = load i32, ptr %19, align 4, !tbaa !32
  %51 = sext i32 %50 to i64
  store i64 %51, ptr %21, align 8, !tbaa !26
  %52 = call ptr @EVP_MD_CTX_new()
  store ptr %52, ptr %26, align 8, !tbaa !35
  %53 = call ptr @EVP_MD_CTX_new()
  store ptr %53, ptr %27, align 8, !tbaa !35
  %54 = load ptr, ptr %26, align 8, !tbaa !35
  %55 = icmp eq ptr %54, null
  br i1 %55, label %59, label %56

56:                                               ; preds = %49
  %57 = load ptr, ptr %27, align 8, !tbaa !35
  %58 = icmp eq ptr %57, null
  br i1 %58, label %59, label %60

59:                                               ; preds = %56, %49
  br label %156

60:                                               ; preds = %56
  %61 = load ptr, ptr %27, align 8, !tbaa !35
  %62 = load ptr, ptr %10, align 8, !tbaa !29
  %63 = call i32 @EVP_DigestInit(ptr noundef %61, ptr noundef %62)
  %64 = icmp ne i32 %63, 0
  br i1 %64, label %66, label %65

65:                                               ; preds = %60
  br label %156

66:                                               ; preds = %60
  store i64 1, ptr %20, align 8, !tbaa !26
  br label %67

67:                                               ; preds = %152, %66
  %68 = load i64, ptr %20, align 8, !tbaa !26
  %69 = lshr i64 %68, 24
  %70 = and i64 %69, 255
  %71 = trunc i64 %70 to i8
  %72 = getelementptr inbounds [4 x i8], ptr %23, i64 0, i64 0
  store i8 %71, ptr %72, align 1, !tbaa !34
  %73 = load i64, ptr %20, align 8, !tbaa !26
  %74 = lshr i64 %73, 16
  %75 = and i64 %74, 255
  %76 = trunc i64 %75 to i8
  %77 = getelementptr inbounds [4 x i8], ptr %23, i64 0, i64 1
  store i8 %76, ptr %77, align 1, !tbaa !34
  %78 = load i64, ptr %20, align 8, !tbaa !26
  %79 = lshr i64 %78, 8
  %80 = and i64 %79, 255
  %81 = trunc i64 %80 to i8
  %82 = getelementptr inbounds [4 x i8], ptr %23, i64 0, i64 2
  store i8 %81, ptr %82, align 1, !tbaa !34
  %83 = load i64, ptr %20, align 8, !tbaa !26
  %84 = and i64 %83, 255
  %85 = trunc i64 %84 to i8
  %86 = getelementptr inbounds [4 x i8], ptr %23, i64 0, i64 3
  store i8 %85, ptr %86, align 1, !tbaa !34
  %87 = load ptr, ptr %26, align 8, !tbaa !35
  %88 = load ptr, ptr %27, align 8, !tbaa !35
  %89 = call i32 @EVP_MD_CTX_copy_ex(ptr noundef %87, ptr noundef %88)
  %90 = icmp ne i32 %89, 0
  br i1 %90, label %91, label %119

91:                                               ; preds = %67
  %92 = load i32, ptr %15, align 4, !tbaa !32
  %93 = icmp ne i32 %92, 0
  br i1 %93, label %99, label %94

94:                                               ; preds = %91
  %95 = load ptr, ptr %26, align 8, !tbaa !35
  %96 = getelementptr inbounds [4 x i8], ptr %23, i64 0, i64 0
  %97 = call i32 @EVP_DigestUpdate(ptr noundef %95, ptr noundef %96, i64 noundef 4)
  %98 = icmp ne i32 %97, 0
  br i1 %98, label %99, label %119

99:                                               ; preds = %94, %91
  %100 = load ptr, ptr %26, align 8, !tbaa !35
  %101 = load ptr, ptr %11, align 8, !tbaa !25
  %102 = load i64, ptr %12, align 8, !tbaa !26
  %103 = call i32 @EVP_DigestUpdate(ptr noundef %100, ptr noundef %101, i64 noundef %102)
  %104 = icmp ne i32 %103, 0
  br i1 %104, label %105, label %119

105:                                              ; preds = %99
  %106 = load i32, ptr %15, align 4, !tbaa !32
  %107 = icmp ne i32 %106, 0
  br i1 %107, label %108, label %113

108:                                              ; preds = %105
  %109 = load ptr, ptr %26, align 8, !tbaa !35
  %110 = getelementptr inbounds [4 x i8], ptr %23, i64 0, i64 0
  %111 = call i32 @EVP_DigestUpdate(ptr noundef %109, ptr noundef %110, i64 noundef 4)
  %112 = icmp ne i32 %111, 0
  br i1 %112, label %113, label %119

113:                                              ; preds = %108, %105
  %114 = load ptr, ptr %26, align 8, !tbaa !35
  %115 = load ptr, ptr %13, align 8, !tbaa !25
  %116 = load i64, ptr %14, align 8, !tbaa !26
  %117 = call i32 @EVP_DigestUpdate(ptr noundef %114, ptr noundef %115, i64 noundef %116)
  %118 = icmp ne i32 %117, 0
  br i1 %118, label %120, label %119

119:                                              ; preds = %113, %108, %99, %94, %67
  br label %156

120:                                              ; preds = %113
  %121 = load i64, ptr %22, align 8, !tbaa !26
  %122 = load i64, ptr %21, align 8, !tbaa !26
  %123 = icmp uge i64 %121, %122
  br i1 %123, label %124, label %141

124:                                              ; preds = %120
  %125 = load ptr, ptr %26, align 8, !tbaa !35
  %126 = load ptr, ptr %25, align 8, !tbaa !25
  %127 = call i32 @EVP_DigestFinal_ex(ptr noundef %125, ptr noundef %126, ptr noundef null)
  %128 = icmp ne i32 %127, 0
  br i1 %128, label %130, label %129

129:                                              ; preds = %124
  br label %156

130:                                              ; preds = %124
  %131 = load i64, ptr %21, align 8, !tbaa !26
  %132 = load ptr, ptr %25, align 8, !tbaa !25
  %133 = getelementptr inbounds nuw i8, ptr %132, i64 %131
  store ptr %133, ptr %25, align 8, !tbaa !25
  %134 = load i64, ptr %21, align 8, !tbaa !26
  %135 = load i64, ptr %22, align 8, !tbaa !26
  %136 = sub i64 %135, %134
  store i64 %136, ptr %22, align 8, !tbaa !26
  %137 = load i64, ptr %22, align 8, !tbaa !26
  %138 = icmp eq i64 %137, 0
  br i1 %138, label %139, label %140

139:                                              ; preds = %130
  br label %155

140:                                              ; preds = %130
  br label %151

141:                                              ; preds = %120
  %142 = load ptr, ptr %26, align 8, !tbaa !35
  %143 = getelementptr inbounds [64 x i8], ptr %24, i64 0, i64 0
  %144 = call i32 @EVP_DigestFinal_ex(ptr noundef %142, ptr noundef %143, ptr noundef null)
  %145 = icmp ne i32 %144, 0
  br i1 %145, label %147, label %146

146:                                              ; preds = %141
  br label %156

147:                                              ; preds = %141
  %148 = load ptr, ptr %25, align 8, !tbaa !25
  %149 = getelementptr inbounds [64 x i8], ptr %24, i64 0, i64 0
  %150 = load i64, ptr %22, align 8, !tbaa !26
  call void @llvm.memcpy.p0.p0.i64(ptr align 1 %148, ptr align 16 %149, i64 %150, i1 false)
  br label %155

151:                                              ; preds = %140
  br label %152

152:                                              ; preds = %151
  %153 = load i64, ptr %20, align 8, !tbaa !26
  %154 = add i64 %153, 1
  store i64 %154, ptr %20, align 8, !tbaa !26
  br label %67

155:                                              ; preds = %147, %139
  store i32 1, ptr %18, align 4, !tbaa !32
  br label %156

156:                                              ; preds = %155, %146, %129, %119, %65, %59
  %157 = load ptr, ptr %26, align 8, !tbaa !35
  call void @EVP_MD_CTX_free(ptr noundef %157)
  %158 = load ptr, ptr %27, align 8, !tbaa !35
  call void @EVP_MD_CTX_free(ptr noundef %158)
  %159 = getelementptr inbounds [64 x i8], ptr %24, i64 0, i64 0
  call void @OPENSSL_cleanse(ptr noundef %159, i64 noundef 64)
  %160 = load i32, ptr %18, align 4, !tbaa !32
  store i32 %160, ptr %9, align 4
  store i32 1, ptr %28, align 4
  br label %161

161:                                              ; preds = %156, %48, %42
  call void @llvm.lifetime.end.p0(i64 8, ptr %27) #6
  call void @llvm.lifetime.end.p0(i64 8, ptr %26) #6
  call void @llvm.lifetime.end.p0(i64 8, ptr %25) #6
  call void @llvm.lifetime.end.p0(i64 64, ptr %24) #6
  call void @llvm.lifetime.end.p0(i64 4, ptr %23) #6
  call void @llvm.lifetime.end.p0(i64 8, ptr %22) #6
  call void @llvm.lifetime.end.p0(i64 8, ptr %21) #6
  call void @llvm.lifetime.end.p0(i64 8, ptr %20) #6
  call void @llvm.lifetime.end.p0(i64 4, ptr %19) #6
  call void @llvm.lifetime.end.p0(i64 4, ptr %18) #6
  %162 = load i32, ptr %9, align 4
  ret i32 %162
}