; Function Attrs: nounwind uwtable
define internal fastcc range(i32 0, 2) i32 @SSKDF_hash_kdm(ptr noundef nonnull %0, ptr noundef %1, i64 noundef %2, ptr noundef %3, i64 noundef %4, i32 noundef range(i32 0, 2) %5, ptr noundef %6, i64 noundef %7) unnamed_addr #0 {
  %9 = alloca [4 x i8], align 1
  %10 = alloca [64 x i8], align 16
  call void @llvm.lifetime.start.p0(i64 4, ptr nonnull %9) #7
  call void @llvm.lifetime.start.p0(i64 64, ptr nonnull %10) #7
  %11 = icmp ugt i64 %2, 1073741824
  %12 = icmp ugt i64 %4, 1073741824
  %or.cond = or i1 %11, %12
  %13 = add i64 %7, -1073741825
  %14 = icmp ult i64 %13, -1073741824
  %or.cond5 = or i1 %or.cond, %14
  br i1 %or.cond5, label %76, label %15

15:                                               ; preds = %8
  %16 = tail call i32 @EVP_MD_get_size(ptr noundef nonnull %0) #7
  %17 = icmp slt i32 %16, 1
  br i1 %17, label %76, label %18

18:                                               ; preds = %15
  %19 = zext nneg i32 %16 to i64
  %20 = tail call ptr @EVP_MD_CTX_new() #7
  %21 = tail call ptr @EVP_MD_CTX_new() #7
  %22 = icmp eq ptr %20, null
  %23 = icmp eq ptr %21, null
  %or.cond7 = select i1 %22, i1 true, i1 %23
  br i1 %or.cond7, label %.loopexit, label %24

24:                                               ; preds = %18
  %25 = tail call i32 @EVP_DigestInit(ptr noundef nonnull %21, ptr noundef nonnull %0) #7
  %.not = icmp eq i32 %25, 0
  br i1 %.not, label %.loopexit, label %.preheader

.preheader:                                       ; preds = %24
  %26 = getelementptr inbounds nuw i8, ptr %9, i64 1
  %27 = getelementptr inbounds nuw i8, ptr %9, i64 2
  %28 = getelementptr inbounds nuw i8, ptr %9, i64 3
  store i8 0, ptr %9, align 1, !tbaa !31
  store i8 0, ptr %26, align 1, !tbaa !31
  store i8 0, ptr %27, align 1, !tbaa !31
  store i8 1, ptr %28, align 1, !tbaa !31
  %29 = tail call i32 @EVP_MD_CTX_copy_ex(ptr noundef nonnull %20, ptr noundef nonnull %21) #7
  %.not6477 = icmp eq i32 %29, 0
  br i1 %.not6477, label %.loopexit, label %.lr.ph

.lr.ph:                                           ; preds = %.preheader
  %.not65 = icmp eq i32 %5, 0
  br i1 %.not65, label %.lr.ph.split.us, label %.thread

.lr.ph.split.us:                                  ; preds = %.lr.ph, %41
  %.080.us = phi ptr [ %42, %41 ], [ %6, %.lr.ph ]
  %.05279.us = phi i64 [ %39, %41 ], [ %7, %.lr.ph ]
  %.05478.us = phi i64 [ %43, %41 ], [ 1, %.lr.ph ]
  %30 = call i32 @EVP_DigestUpdate(ptr noundef nonnull %20, ptr noundef nonnull %9, i64 noundef 4) #7
  %.not66.us = icmp eq i32 %30, 0
  br i1 %.not66.us, label %.loopexit, label %31

31:                                               ; preds = %.lr.ph.split.us
  %32 = call i32 @EVP_DigestUpdate(ptr noundef nonnull %20, ptr noundef %1, i64 noundef %2) #7
  %.not67.us = icmp eq i32 %32, 0
  br i1 %.not67.us, label %.loopexit, label %33

33:                                               ; preds = %31
  %34 = call i32 @EVP_DigestUpdate(ptr noundef nonnull %20, ptr noundef %3, i64 noundef %4) #7
  %.not69.us = icmp eq i32 %34, 0
  br i1 %.not69.us, label %.loopexit, label %35

35:                                               ; preds = %33
  %.not70.us = icmp ult i64 %.05279.us, %19
  br i1 %.not70.us, label %.split.us, label %36

36:                                               ; preds = %35
  %37 = call i32 @EVP_DigestFinal_ex(ptr noundef nonnull %20, ptr noundef %.080.us, ptr noundef null) #7
  %.not72.us = icmp eq i32 %37, 0
  br i1 %.not72.us, label %.loopexit, label %38

38:                                               ; preds = %36
  %39 = sub i64 %.05279.us, %19
  %40 = icmp eq i64 %39, 0
  br i1 %40, label %.loopexit, label %41

41:                                               ; preds = %38
  %42 = getelementptr inbounds nuw i8, ptr %.080.us, i64 %19
  %43 = add i64 %.05478.us, 1
  %44 = lshr i64 %43, 24
  %45 = trunc i64 %44 to i8
  store i8 %45, ptr %9, align 1, !tbaa !31
  %46 = lshr i64 %43, 16
  %47 = trunc i64 %46 to i8
  store i8 %47, ptr %26, align 1, !tbaa !31
  %48 = lshr i64 %43, 8
  %49 = trunc i64 %48 to i8
  store i8 %49, ptr %27, align 1, !tbaa !31
  %50 = trunc i64 %43 to i8
  store i8 %50, ptr %28, align 1, !tbaa !31
  %51 = call i32 @EVP_MD_CTX_copy_ex(ptr noundef nonnull %20, ptr noundef nonnull %21) #7
  %.not64.us = icmp eq i32 %51, 0
  br i1 %.not64.us, label %.loopexit, label %.lr.ph.split.us

.thread:                                          ; preds = %.lr.ph, %65
  %.080 = phi ptr [ %66, %65 ], [ %6, %.lr.ph ]
  %.05279 = phi i64 [ %61, %65 ], [ %7, %.lr.ph ]
  %.05478 = phi i64 [ %67, %65 ], [ 1, %.lr.ph ]
  %52 = call i32 @EVP_DigestUpdate(ptr noundef nonnull %20, ptr noundef %1, i64 noundef %2) #7
  %.not6773 = icmp eq i32 %52, 0
  br i1 %.not6773, label %.loopexit, label %53

53:                                               ; preds = %.thread
  %54 = call i32 @EVP_DigestUpdate(ptr noundef nonnull %20, ptr noundef nonnull %9, i64 noundef 4) #7
  %.not68 = icmp eq i32 %54, 0
  br i1 %.not68, label %.loopexit, label %55

55:                                               ; preds = %53
  %56 = call i32 @EVP_DigestUpdate(ptr noundef nonnull %20, ptr noundef %3, i64 noundef %4) #7
  %.not69 = icmp eq i32 %56, 0
  br i1 %.not69, label %.loopexit, label %57

57:                                               ; preds = %55
  %.not70 = icmp ult i64 %.05279, %19
  br i1 %.not70, label %.split.us, label %58

58:                                               ; preds = %57
  %59 = call i32 @EVP_DigestFinal_ex(ptr noundef nonnull %20, ptr noundef %.080, ptr noundef null) #7
  %.not72 = icmp eq i32 %59, 0
  br i1 %.not72, label %.loopexit, label %60

60:                                               ; preds = %58
  %61 = sub i64 %.05279, %19
  %62 = icmp eq i64 %61, 0
  br i1 %62, label %.loopexit, label %65

.split.us:                                        ; preds = %57, %35
  %.us-phi96 = phi i64 [ %.05279.us, %35 ], [ %.05279, %57 ]
  %.us-phi97 = phi ptr [ %.080.us, %35 ], [ %.080, %57 ]
  %63 = call i32 @EVP_DigestFinal_ex(ptr noundef nonnull %20, ptr noundef nonnull %10, ptr noundef null) #7
  %.not71 = icmp eq i32 %63, 0
  br i1 %.not71, label %.loopexit, label %64

64:                                               ; preds = %.split.us
  call void @llvm.memcpy.p0.p0.i64(ptr align 1 %.us-phi97, ptr nonnull align 16 %10, i64 %.us-phi96, i1 false)
  br label %.loopexit

65:                                               ; preds = %60
  %66 = getelementptr inbounds nuw i8, ptr %.080, i64 %19
  %67 = add i64 %.05478, 1
  %68 = lshr i64 %67, 24
  %69 = trunc i64 %68 to i8
  store i8 %69, ptr %9, align 1, !tbaa !31
  %70 = lshr i64 %67, 16
  %71 = trunc i64 %70 to i8
  store i8 %71, ptr %26, align 1, !tbaa !31
  %72 = lshr i64 %67, 8
  %73 = trunc i64 %72 to i8
  store i8 %73, ptr %27, align 1, !tbaa !31
  %74 = trunc i64 %67 to i8
  store i8 %74, ptr %28, align 1, !tbaa !31
  %75 = call i32 @EVP_MD_CTX_copy_ex(ptr noundef nonnull %20, ptr noundef nonnull %21) #7
  %.not64 = icmp eq i32 %75, 0
  br i1 %.not64, label %.loopexit, label %.thread

.loopexit:                                        ; preds = %55, %53, %65, %58, %60, %.thread, %33, %31, %.lr.ph.split.us, %41, %36, %38, %.preheader, %64, %.split.us, %24, %18
  %.055 = phi i32 [ 0, %18 ], [ 0, %.split.us ], [ 0, %24 ], [ 1, %64 ], [ 0, %.preheader ], [ 0, %33 ], [ 0, %31 ], [ 0, %.lr.ph.split.us ], [ 0, %41 ], [ 0, %36 ], [ 1, %38 ], [ 0, %55 ], [ 0, %53 ], [ 0, %65 ], [ 0, %58 ], [ 1, %60 ], [ 0, %.thread ]
  call void @EVP_MD_CTX_free(ptr noundef %20) #7
  call void @EVP_MD_CTX_free(ptr noundef %21) #7
  call void @OPENSSL_cleanse(ptr noundef nonnull %10, i64 noundef 64) #7
  br label %76

76:                                               ; preds = %15, %8, %.loopexit
  %.053 = phi i32 [ %.055, %.loopexit ], [ 0, %8 ], [ 0, %15 ]
  call void @llvm.lifetime.end.p0(i64 64, ptr nonnull %10) #7
  call void @llvm.lifetime.end.p0(i64 4, ptr nonnull %9) #7
  ret i32 %.053
}